target datalayout = "e-m:e-p270:32:32-p271:32:32-p272:64:64-i64:64-i128:128-f80:128-n8:16:32:64-S128"
target triple = "x86_64-pc-linux-gnu"

%struct.LoadS = type { ptr, i64 }

; Function Attrs: nounwind uwtable
define internal ptr @getS(ptr noundef %0, ptr noundef %1, ptr noundef %2) #0 {
  %4 = alloca ptr, align 8
  %5 = alloca ptr, align 8
  %6 = alloca ptr, align 8
  %7 = alloca ptr, align 8
  %8 = alloca ptr, align 8
  %9 = alloca i32, align 4
  store ptr %0, ptr %5, align 8, !tbaa !4
  store ptr %1, ptr %6, align 8, !tbaa !25
  store ptr %2, ptr %7, align 8, !tbaa !21
  call void @llvm.lifetime.start.p0(i64 8, ptr %8) #9
  %10 = load ptr, ptr %6, align 8, !tbaa !25
  store ptr %10, ptr %8, align 8, !tbaa !59
  %11 = load ptr, ptr %8, align 8, !tbaa !59
  %12 = getelementptr inbounds nuw %struct.LoadS, ptr %11, i32 0, i32 1
  %13 = load i64, ptr %12, align 8, !tbaa !58
  %14 = icmp eq i64 %13, 0
  br i1 %14, label %15, label %16

15:                                               ; preds = %3
  store ptr null, ptr %4, align 8
  store i32 1, ptr %9, align 4
  br label %26

16:                                               ; preds = %3
  %17 = load ptr, ptr %8, align 8, !tbaa !59
  %18 = getelementptr inbounds nuw %struct.LoadS, ptr %17, i32 0, i32 1
  %19 = load i64, ptr %18, align 8, !tbaa !58
  %20 = load ptr, ptr %7, align 8, !tbaa !21
  store i64 %19, ptr %20, align 8, !tbaa !23
  %21 = load ptr, ptr %8, align 8, !tbaa !59
  %22 = getelementptr inbounds nuw %struct.LoadS, ptr %21, i32 0, i32 1
  store i64 0, ptr %22, align 8, !tbaa !58
  %23 = load ptr, ptr %8, align 8, !tbaa !59
  %24 = getelementptr inbounds nuw %struct.LoadS, ptr %23, i32 0, i32 0
  %25 = load ptr, ptr %24, align 8, !tbaa !56
  store ptr %25, ptr %4, align 8
  store i32 1, ptr %9, align 4
  br label %26

26:                                               ; preds = %16, %15
  call void @llvm.lifetime.end.p0(i64 8, ptr %8) #9
  %27 = load ptr, ptr %4, align 8
  ret ptr %27
}