; Function Attrs: mustprogress nofree norecurse nosync nounwind willreturn memory(argmem: readwrite) uwtable
define internal ptr @getS(ptr readnone captures(none) %0, ptr noundef captures(none) %1, ptr noundef writeonly captures(none) %2) #10 {
  %4 = getelementptr inbounds nuw i8, ptr %1, i64 8
  %5 = load i64, ptr %4, align 8, !tbaa !42
  %6 = icmp eq i64 %5, 0
  br i1 %6, label %9, label %7

7:                                                ; preds = %3
  store i64 %5, ptr %2, align 8, !tbaa !16
  store i64 0, ptr %4, align 8, !tbaa !42
  %8 = load ptr, ptr %1, align 8, !tbaa !40
  br label %9

9:                                                ; preds = %3, %7
  %.0 = phi ptr [ %8, %7 ], [ null, %3 ]
  ret ptr %.0
}